target datalayout = "e-m:e-p270:32:32-p271:32:32-p272:64:64-i64:64-i128:128-f80:128-n8:16:32:64-S128"
target triple = "x86_64-pc-linux-gnu"

; Function Attrs: nounwind uwtable
define internal double @trc_gamma22(double noundef %0) #0 {
  %2 = alloca double, align 8
  store double %0, ptr %2, align 8, !tbaa !27
  %3 = load double, ptr %2, align 8, !tbaa !27
  %4 = fcmp nsz ogt double 0.000000e+00, %3
  br i1 %4, label %5, label %6

5:                                                ; preds = %1
  br label %9

6:                                                ; preds = %1
  %7 = load double, ptr %2, align 8, !tbaa !27
  %8 = call nsz double @llvm.pow.f64(double %7, double 0x3FDD1745D1745D17)
  br label %9

9:                                                ; preds = %6, %5
  %10 = phi nsz double [ 0.000000e+00, %5 ], [ %8, %6 ]
  ret double %10
}

; Function Attrs: nounwind uwtable
define internal void @oetf_gamma22(ptr noundef %0) #0 {
  %2 = alloca ptr, align 8
  %3 = alloca i32, align 4
  store ptr %0, ptr %2, align 8, !tbaa !30
  call void @llvm.lifetime.start.p0(i64 4, ptr %3) #7
  store i32 0, ptr %3, align 4, !tbaa !4
  br label %4

4:                                                ; preds = %19, %1
  %5 = load i32, ptr %3, align 4, !tbaa !4
  %6 = icmp slt i32 %5, 3
  br i1 %6, label %8, label %7

7:                                                ; preds = %4
  call void @llvm.lifetime.end.p0(i64 4, ptr %3) #7
  br label %22

8:                                                ; preds = %4
  %9 = load ptr, ptr %2, align 8, !tbaa !30
  %10 = load i32, ptr %3, align 4, !tbaa !4
  %11 = sext i32 %10 to i64
  %12 = getelementptr inbounds double, ptr %9, i64 %11
  %13 = load double, ptr %12, align 8, !tbaa !27
  %14 = call nsz double @trc_gamma22(double noundef %13)
  %15 = load ptr, ptr %2, align 8, !tbaa !30
  %16 = load i32, ptr %3, align 4, !tbaa !4
  %17 = sext i32 %16 to i64
  %18 = getelementptr inbounds double, ptr %15, i64 %17
  store double %14, ptr %18, align 8, !tbaa !27
  br label %19

19:                                               ; preds = %8
  %20 = load i32, ptr %3, align 4, !tbaa !4
  %21 = add nsw i32 %20, 1
  store i32 %21, ptr %3, align 4, !tbaa !4
  br label %4, !llvm.loop !47

22:                                               ; preds = %7
  ret void
}

; Function Attrs: nounwind uwtable
define internal void @eotf_linear_inv(double noundef %0, double noundef %1, ptr noundef %2) #0 {
  %4 = alloca double, align 8
  %5 = alloca double, align 8
  %6 = alloca ptr, align 8
  %7 = alloca i32, align 4
  store double %0, ptr %4, align 8, !tbaa !27
  store double %1, ptr %5, align 8, !tbaa !27
  store ptr %2, ptr %6, align 8, !tbaa !30
  call void @llvm.lifetime.start.p0(i64 4, ptr %7) #7
  store i32 0, ptr %7, align 4, !tbaa !4
  br label %8

8:                                                ; preds = %28, %3
  %9 = load i32, ptr %7, align 4, !tbaa !4
  %10 = icmp slt i32 %9, 3
  br i1 %10, label %12, label %11

11:                                               ; preds = %8
  call void @llvm.lifetime.end.p0(i64 4, ptr %7) #7
  br label %31

12:                                               ; preds = %8
  %13 = load ptr, ptr %6, align 8, !tbaa !30
  %14 = load i32, ptr %7, align 4, !tbaa !4
  %15 = sext i32 %14 to i64
  %16 = getelementptr inbounds double, ptr %13, i64 %15
  %17 = load double, ptr %16, align 8, !tbaa !27
  %18 = load double, ptr %5, align 8, !tbaa !27
  %19 = fsub nsz double %17, %18
  %20 = load double, ptr %4, align 8, !tbaa !27
  %21 = load double, ptr %5, align 8, !tbaa !27
  %22 = fsub nsz double %20, %21
  %23 = fdiv nsz double %19, %22
  %24 = load ptr, ptr %6, align 8, !tbaa !30
  %25 = load i32, ptr %7, align 4, !tbaa !4
  %26 = sext i32 %25 to i64
  %27 = getelementptr inbounds double, ptr %24, i64 %26
  store double %23, ptr %27, align 8, !tbaa !27
  br label %28

28:                                               ; preds = %12
  %29 = load i32, ptr %7, align 4, !tbaa !4
  %30 = add nsw i32 %29, 1
  store i32 %30, ptr %7, align 4, !tbaa !4
  br label %8, !llvm.loop !42

31:                                               ; preds = %11
  ret void
}

; Function Attrs: nounwind uwtable
define internal void @eotf_gamma22_inv(double noundef %0, double noundef %1, ptr noundef %2) #0 {
  %4 = alloca double, align 8
  %5 = alloca double, align 8
  %6 = alloca ptr, align 8
  store double %0, ptr %4, align 8, !tbaa !27
  store double %1, ptr %5, align 8, !tbaa !27
  store ptr %2, ptr %6, align 8, !tbaa !30
  %7 = load double, ptr %4, align 8, !tbaa !27
  %8 = load double, ptr %5, align 8, !tbaa !27
  %9 = load ptr, ptr %6, align 8, !tbaa !30
  call void @eotf_linear_inv(double noundef %7, double noundef %8, ptr noundef %9)
  %10 = load ptr, ptr %6, align 8, !tbaa !30
  call void @oetf_gamma22(ptr noundef %10)
  ret void
}