; Function Attrs: nofree norecurse nosync nounwind memory(argmem: readwrite) uwtable
define internal void @eotf_gamma22_inv(double noundef %0, double noundef %1, ptr noundef captures(none) %2) #5 {
  %4 = fsub nsz double %0, %1
  br label %5

5:                                                ; preds = %5, %3
  %indvars.iv.i = phi i64 [ 0, %3 ], [ %indvars.iv.next.i, %5 ]
  %6 = getelementptr inbounds nuw double, ptr %2, i64 %indvars.iv.i
  %7 = load double, ptr %6, align 8, !tbaa !16
  %8 = fsub nsz double %7, %1
  %9 = fdiv nsz double %8, %4
  store double %9, ptr %6, align 8, !tbaa !16
  %indvars.iv.next.i = add nuw nsw i64 %indvars.iv.i, 1
  %exitcond.not.i = icmp eq i64 %indvars.iv.next.i, 3
  br i1 %exitcond.not.i, label %eotf_linear_inv.exit, label %5, !llvm.loop !30

eotf_linear_inv.exit:                             ; preds = %5, %eotf_linear_inv.exit
  %indvars.iv.i4 = phi i64 [ %indvars.iv.next.i5, %eotf_linear_inv.exit ], [ 0, %5 ]
  %10 = getelementptr inbounds nuw double, ptr %2, i64 %indvars.iv.i4
  %11 = load double, ptr %10, align 8, !tbaa !16
  %12 = fcmp nsz olt double %11, 0.000000e+00
  %13 = tail call nsz double @llvm.pow.f64(double %11, double 0x3FDD1745D1745D17)
  %14 = select nsz i1 %12, double 0.000000e+00, double %13
  store double %14, ptr %10, align 8, !tbaa !16
  %indvars.iv.next.i5 = add nuw nsw i64 %indvars.iv.i4, 1
  %exitcond.not.i6 = icmp eq i64 %indvars.iv.next.i5, 3
  br i1 %exitcond.not.i6, label %oetf_gamma22.exit, label %eotf_linear_inv.exit, !llvm.loop !31

oetf_gamma22.exit:                                ; preds = %eotf_linear_inv.exit
  ret void
}